; ModuleID = '39/832.c'
source_filename = "39/832.c"
target datalayout = "e-m:e-p270:32:32-p271:32:32-p272:64:64-i64:64-f80:128-n8:16:32:64-S128"
target triple = "x86_64-pc-linux-gnu"

@.str = private unnamed_addr constant [3 x i8] c"%d\00", align 1
@.str.1 = private unnamed_addr constant [15 x i8] c"%s%d%d %c %c%d\00", align 1
@.str.2 = private unnamed_addr constant [7 x i8] c"%s\0A%d\0A\00", align 1

; Function Attrs: noinline nounwind uwtable
define dso_local i32 @main() #0 {
  %1 = alloca i32, align 4
  %2 = alloca i32, align 4
  %3 = alloca i32, align 4
  %4 = alloca i32, align 4
  %5 = alloca i32, align 4
  %6 = alloca [200 x [30 x i8]], align 16
  %7 = alloca [200 x i32], align 16
  %8 = alloca [200 x i32], align 16
  %9 = alloca [200 x i32], align 16
  %10 = alloca [200 x i8], align 16
  %11 = alloca [200 x i8], align 16
  %12 = alloca [200 x i32], align 16
  store i32 0, i32* %1, align 4
  %13 = call i32 (i8*, ...) @__isoc99_scanf(i8* getelementptr inbounds ([3 x i8], [3 x i8]* @.str, i64 0, i64 0), i32* %2)
  store i32 0, i32* %5, align 4
  store i32 0, i32* %3, align 4
  br label %14

14:                                               ; preds = %130, %0
  %15 = load i32, i32* %3, align 4
  %16 = load i32, i32* %2, align 4
  %17 = icmp slt i32 %15, %16
  br i1 %17, label %18, label %133

18:                                               ; preds = %14
  %19 = load i32, i32* %3, align 4
  %20 = sext i32 %19 to i64
  %21 = getelementptr inbounds [200 x [30 x i8]], [200 x [30 x i8]]* %6, i64 0, i64 %20
  %22 = getelementptr inbounds [30 x i8], [30 x i8]* %21, i64 0, i64 0
  %23 = load i32, i32* %3, align 4
  %24 = sext i32 %23 to i64
  %25 = getelementptr inbounds [200 x i32], [200 x i32]* %7, i64 0, i64 %24
  %26 = load i32, i32* %3, align 4
  %27 = sext i32 %26 to i64
  %28 = getelementptr inbounds [200 x i32], [200 x i32]* %8, i64 0, i64 %27
  %29 = load i32, i32* %3, align 4
  %30 = sext i32 %29 to i64
  %31 = getelementptr inbounds [200 x i8], [200 x i8]* %10, i64 0, i64 %30
  %32 = load i32, i32* %3, align 4
  %33 = sext i32 %32 to i64
  %34 = getelementptr inbounds [200 x i8], [200 x i8]* %11, i64 0, i64 %33
  %35 = load i32, i32* %3, align 4
  %36 = sext i32 %35 to i64
  %37 = getelementptr inbounds [200 x i32], [200 x i32]* %12, i64 0, i64 %36
  %38 = call i32 (i8*, ...) @__isoc99_scanf(i8* getelementptr inbounds ([15 x i8], [15 x i8]* @.str.1, i64 0, i64 0), i8* %22, i32* %25, i32* %28, i8* %31, i8* %34, i32* %37)
  %39 = load i32, i32* %3, align 4
  %40 = sext i32 %39 to i64
  %41 = getelementptr inbounds [200 x i32], [200 x i32]* %9, i64 0, i64 %40
  store i32 0, i32* %41, align 4
  %42 = load i32, i32* %3, align 4
  %43 = sext i32 %42 to i64
  %44 = getelementptr inbounds [200 x i32], [200 x i32]* %7, i64 0, i64 %43
  %45 = load i32, i32* %44, align 4
  %46 = icmp sgt i32 %45, 80
  br i1 %46, label %47, label %60

47:                                               ; preds = %18
  %48 = load i32, i32* %3, align 4
  %49 = sext i32 %48 to i64
  %50 = getelementptr inbounds [200 x i32], [200 x i32]* %12, i64 0, i64 %49
  %51 = load i32, i32* %50, align 4
  %52 = icmp sge i32 %51, 1
  br i1 %52, label %53, label %59

53:                                               ; preds = %47
  %54 = load i32, i32* %3, align 4
  %55 = sext i32 %54 to i64
  %56 = getelementptr inbounds [200 x i32], [200 x i32]* %9, i64 0, i64 %55
  %57 = load i32, i32* %56, align 4
  %58 = add nsw i32 %57, 8000
  store i32 %58, i32* %56, align 4
  br label %59

59:                                               ; preds = %53, %47
  br label %60

60:                                               ; preds = %59, %18
  %61 = load i32, i32* %3, align 4
  %62 = sext i32 %61 to i64
  %63 = getelementptr inbounds [200 x i8], [200 x i8]* %10, i64 0, i64 %62
  %64 = load i8, i8* %63, align 1
  %65 = sext i8 %64 to i32
  %66 = icmp eq i32 %65, 89
  br i1 %66, label %67, label %79

67:                                               ; preds = %60
  %68 = load i32, i32* %3, align 4
  %69 = sext i32 %68 to i64
  %70 = getelementptr inbounds [200 x i32], [200 x i32]* %8, i64 0, i64 %69
  %71 = load i32, i32* %70, align 4
  %72 = icmp sgt i32 %71, 80
  br i1 %72, label %73, label %79

73:                                               ; preds = %67
  %74 = load i32, i32* %3, align 4
  %75 = sext i32 %74 to i64
  %76 = getelementptr inbounds [200 x i32], [200 x i32]* %9, i64 0, i64 %75
  %77 = load i32, i32* %76, align 4
  %78 = add nsw i32 %77, 850
  store i32 %78, i32* %76, align 4
  br label %79

79:                                               ; preds = %73, %67, %60
  %80 = load i32, i32* %3, align 4
  %81 = sext i32 %80 to i64
  %82 = getelementptr inbounds [200 x i32], [200 x i32]* %7, i64 0, i64 %81
  %83 = load i32, i32* %82, align 4
  %84 = icmp sgt i32 %83, 85
  br i1 %84, label %85, label %111

85:                                               ; preds = %79
  %86 = load i32, i32* %3, align 4
  %87 = sext i32 %86 to i64
  %88 = getelementptr inbounds [200 x i32], [200 x i32]* %8, i64 0, i64 %87
  %89 = load i32, i32* %88, align 4
  %90 = icmp sgt i32 %89, 80
  br i1 %90, label %91, label %97

91:                                               ; preds = %85
  %92 = load i32, i32* %3, align 4
  %93 = sext i32 %92 to i64
  %94 = getelementptr inbounds [200 x i32], [200 x i32]* %9, i64 0, i64 %93
  %95 = load i32, i32* %94, align 4
  %96 = add nsw i32 %95, 4000
  store i32 %96, i32* %94, align 4
  br label %97

97:                                               ; preds = %91, %85
  %98 = load i32, i32* %3, align 4
  %99 = sext i32 %98 to i64
  %100 = getelementptr inbounds [200 x i8], [200 x i8]* %11, i64 0, i64 %99
  %101 = load i8, i8* %100, align 1
  %102 = sext i8 %101 to i32
  %103 = icmp eq i32 %102, 89
  br i1 %103, label %104, label %110

104:                                              ; preds = %97
  %105 = load i32, i32* %3, align 4
  %106 = sext i32 %105 to i64
  %107 = getelementptr inbounds [200 x i32], [200 x i32]* %9, i64 0, i64 %106
  %108 = load i32, i32* %107, align 4
  %109 = add nsw i32 %108, 1000
  store i32 %109, i32* %107, align 4
  br label %110

110:                                              ; preds = %104, %97
  br label %111

111:                                              ; preds = %110, %79
  %112 = load i32, i32* %3, align 4
  %113 = sext i32 %112 to i64
  %114 = getelementptr inbounds [200 x i32], [200 x i32]* %7, i64 0, i64 %113
  %115 = load i32, i32* %114, align 4
  %116 = icmp sgt i32 %115, 90
  br i1 %116, label %117, label %123

117:                                              ; preds = %111
  %118 = load i32, i32* %3, align 4
  %119 = sext i32 %118 to i64
  %120 = getelementptr inbounds [200 x i32], [200 x i32]* %9, i64 0, i64 %119
  %121 = load i32, i32* %120, align 4
  %122 = add nsw i32 %121, 2000
  store i32 %122, i32* %120, align 4
  br label %123

123:                                              ; preds = %117, %111
  %124 = load i32, i32* %3, align 4
  %125 = sext i32 %124 to i64
  %126 = getelementptr inbounds [200 x i32], [200 x i32]* %9, i64 0, i64 %125
  %127 = load i32, i32* %126, align 4
  %128 = load i32, i32* %5, align 4
  %129 = add nsw i32 %128, %127
  store i32 %129, i32* %5, align 4
  br label %130

130:                                              ; preds = %123
  %131 = load i32, i32* %3, align 4
  %132 = add nsw i32 %131, 1
  store i32 %132, i32* %3, align 4
  br label %14

133:                                              ; preds = %14
  store i32 0, i32* %4, align 4
  store i32 0, i32* %3, align 4
  br label %134

134:                                              ; preds = %151, %133
  %135 = load i32, i32* %3, align 4
  %136 = load i32, i32* %2, align 4
  %137 = icmp slt i32 %135, %136
  br i1 %137, label %138, label %154

138:                                              ; preds = %134
  %139 = load i32, i32* %4, align 4
  %140 = sext i32 %139 to i64
  %141 = getelementptr inbounds [200 x i32], [200 x i32]* %9, i64 0, i64 %140
  %142 = load i32, i32* %141, align 4
  %143 = load i32, i32* %3, align 4
  %144 = sext i32 %143 to i64
  %145 = getelementptr inbounds [200 x i32], [200 x i32]* %9, i64 0, i64 %144
  %146 = load i32, i32* %145, align 4
  %147 = icmp slt i32 %142, %146
  br i1 %147, label %148, label %150

148:                                              ; preds = %138
  %149 = load i32, i32* %3, align 4
  store i32 %149, i32* %4, align 4
  br label %150

150:                                              ; preds = %148, %138
  br label %151

151:                                              ; preds = %150
  %152 = load i32, i32* %3, align 4
  %153 = add nsw i32 %152, 1
  store i32 %153, i32* %3, align 4
  br label %134

154:                                              ; preds = %134
  %155 = load i32, i32* %4, align 4
  %156 = sext i32 %155 to i64
  %157 = getelementptr inbounds [200 x [30 x i8]], [200 x [30 x i8]]* %6, i64 0, i64 %156
  %158 = getelementptr inbounds [30 x i8], [30 x i8]* %157, i64 0, i64 0
  %159 = load i32, i32* %4, align 4
  %160 = sext i32 %159 to i64
  %161 = getelementptr inbounds [200 x i32], [200 x i32]* %9, i64 0, i64 %160
  %162 = load i32, i32* %161, align 4
  %163 = call i32 (i8*, ...) @printf(i8* getelementptr inbounds ([7 x i8], [7 x i8]* @.str.2, i64 0, i64 0), i8* %158, i32 %162)
  %164 = load i32, i32* %5, align 4
  %165 = call i32 (i8*, ...) @printf(i8* getelementptr inbounds ([3 x i8], [3 x i8]* @.str, i64 0, i64 0), i32 %164)
  ret i32 0
}

declare dso_local i32 @__isoc99_scanf(i8*, ...) #1

declare dso_local i32 @printf(i8*, ...) #1


!llvm.module.flags = !{!0}
!llvm.ident = !{!1}

!0 = !{i32 1, !"wchar_size", i32 4}
!1 = !{!"clang version 10.0.0-4ubuntu1 "}
